Certificate:
    Data:
        Version: 3 (0x2)
        Serial Number: 4096 (0x1000)
        Signature Algorithm: sha256WithRSAEncryption
        Issuer: C=LK, ST=Western, L=Colombo, O=University of Colombo, OU=School of Computing, CN=UCSC CA/emailAddress=chathuranga4742@gmail.com
        Validity
            Not Before: Jan  1 18:12:43 2021 GMT
            Not After : Dec 30 18:12:43 2030 GMT
        Subject: C=LK, ST=Western, O=University of Colombo, OU=School of Computing, CN=Buddhi/emailAddress=chathuranga4742@gmail.com
        Subject Public Key Info:
            Public Key Algorithm: rsaEncryption
                RSA Public-Key: (4096 bit)
                Modulus:
                    00:d4:e0:4b:51:1c:c1:ba:43:fc:a0:3e:7f:c0:16:
                    1f:dc:c9:e3:e2:fc:b9:01:52:bb:61:8f:dd:0a:6c:
                    42:c2:6c:4a:a9:50:96:89:19:91:c4:51:ea:0d:c0:
                    e2:48:ec:21:40:c0:f5:e5:16:4b:1c:82:ec:3c:ec:
                    a5:0c:8a:71:fe:66:a0:1c:34:1e:71:69:98:76:e4:
                    93:1a:75:d3:28:d7:ff:bf:10:ce:95:d7:6c:83:9d:
                    08:36:42:8a:95:a5:78:f3:23:bc:37:19:c9:d5:6f:
                    3b:1e:57:df:33:64:6b:4a:41:51:3d:d7:94:13:bc:
                    96:d3:1a:9a:4e:70:2d:db:24:b6:f6:17:d6:4d:2b:
                    42:94:2d:dc:0b:c8:71:92:23:1f:c6:83:97:28:e8:
                    f2:de:e4:2e:da:22:a3:e3:7d:2d:ae:d8:0a:03:d3:
                    87:12:e8:31:5d:44:63:3c:3c:53:09:8f:10:66:dd:
                    e7:ac:62:1d:8c:82:76:dc:e2:34:e3:25:2f:5d:fd:
                    bf:6d:fb:db:16:d6:37:3c:8b:43:ab:92:9b:b6:99:
                    95:41:96:91:aa:c9:cc:15:31:01:d4:1d:14:22:32:
                    d2:34:20:f7:75:dd:8b:98:35:82:00:14:94:26:18:
                    d3:a6:d2:79:1b:47:a7:fb:e9:7a:67:8c:ca:9f:40:
                    ca:51:83:a8:31:f7:38:2e:8f:43:dc:b8:a9:11:9f:
                    70:1c:db:7b:8e:9e:43:56:a7:52:4f:5f:95:95:ac:
                    b5:a6:d5:51:a4:ff:c7:21:0c:a4:fd:44:48:bb:06:
                    50:2d:c3:af:d4:84:b7:8d:77:7d:40:08:52:05:d0:
                    17:87:98:9b:d0:10:4f:6f:ab:d6:0b:93:89:3e:df:
                    2a:16:25:d4:b8:ac:d1:a9:e8:a8:31:c5:e5:2f:70:
                    4d:ac:ab:09:82:5e:56:05:35:f0:60:a1:6e:e7:c2:
                    71:63:47:ca:cc:e3:93:46:57:65:18:8a:3b:94:4f:
                    6f:8a:a3:34:a3:7a:22:8e:8c:99:a4:e3:c4:58:66:
                    ba:fc:d2:15:b4:12:d5:ca:cc:6a:2d:0d:ad:f6:e9:
                    b8:c6:93:ad:d6:4e:94:bc:f0:bd:b5:b6:12:ba:fc:
                    27:2e:87:06:b0:8f:e6:ea:10:9c:6d:3a:7e:28:ad:
                    90:8d:58:b1:2a:36:70:7c:ba:e4:24:99:5c:86:36:
                    ae:49:ba:f8:08:ec:6c:97:a7:42:de:2c:44:5d:71:
                    ff:20:be:a7:b2:57:db:eb:22:6a:95:3d:83:e8:a4:
                    9e:bc:c6:b2:3d:18:bf:85:94:2a:e1:5d:7f:66:55:
                    a7:b8:f4:0a:37:41:a9:2b:c0:84:49:ab:be:04:ae:
                    35:70:e1
                Exponent: 65537 (0x10001)
        X509v3 extensions:
            X509v3 Basic Constraints: 
                CA:FALSE
            Netscape Comment: 
                OpenSSL Generated Certificate
            X509v3 Subject Key Identifier: 
                BA:4F:EB:ED:C9:32:BE:A9:92:E0:5D:DD:B8:AD:B7:AC:5A:F5:C9:6D
            X509v3 Authority Key Identifier: 
                keyid:DB:56:89:72:93:FD:1A:E1:FD:D1:D7:BF:17:F3:A1:0D:80:D3:05:5F

    Signature Algorithm: sha256WithRSAEncryption
         4c:be:f5:15:8e:b4:12:f3:f8:77:f1:d1:da:d3:d1:07:30:cb:
         0d:44:4d:64:af:c4:18:44:37:3f:06:6b:a7:a9:f2:df:8c:74:
         03:68:22:02:6b:13:da:79:5d:a4:22:0f:f4:af:f3:34:07:90:
         23:7d:69:77:22:fe:2e:64:4b:15:11:25:f9:c3:11:a8:15:39:
         db:88:0c:24:0b:5a:5a:94:4a:6b:36:d5:88:3a:61:98:16:40:
         ee:0e:db:11:ef:71:39:4f:49:7a:ef:9e:f9:49:0c:9f:30:a6:
         0a:0c:d0:98:62:c4:29:d2:b7:b8:67:b3:93:8a:81:01:2e:37:
         42:31:a7:10:c9:e9:a3:cf:53:39:90:2b:09:07:d3:19:a0:3a:
         15:9f:f1:5e:ae:51:79:38:f0:d5:0c:35:e1:8a:50:5b:43:25:
         ce:dd:4d:5e:a6:73:32:60:b6:fe:47:6d:a9:8e:bb:66:66:2e:
         b4:a0:c1:a8:47:1a:fe:46:4a:9a:c8:3e:6c:f6:b2:c7:fb:b2:
         7b:e5:bf:f3:e7:a2:cd:18:dd:53:ad:5b:e4:fa:44:4d:5d:f2:
         d1:da:ee:14:25:74:27:3c:db:b1:4a:f3:b3:d4:cb:d7:c8:5f:
         c4:49:4d:8f:fa:49:c0:03:fc:05:e3:09:3b:b4:03:a8:ef:35:
         a2:04:ff:3c:01:08:24:6b:31:bc:de:2d:3f:2e:aa:7a:a4:84:
         d0:2b:b1:87:32:c0:86:5e:61:2d:dc:bd:56:22:08:6c:e6:72:
         a9:fa:6c:f8:85:1a:b0:65:22:a5:f8:7e:fe:03:36:62:c2:55:
         d2:71:2e:a3:be:93:26:f0:c4:f6:9b:7b:c9:fd:bc:e4:7e:50:
         0e:0a:b7:a8:93:1f:23:78:ff:db:43:2d:0b:16:f2:37:b0:f5:
         07:23:cb:1c:37:3f:e8:c0:77:f5:5f:37:de:9d:a3:21:30:f5:
         06:3d:33:0e:20:eb:2a:64:18:d7:20:4d:72:f1:a8:1e:cb:db:
         3c:a4:eb:6d:72:9a:82:7b:43:77:15:9c:70:88:e5:61:40:fc:
         01:80:57:8c:e0:89:9f:10:53:a3:6f:0a:31:ab:7c:4f:e3:f1:
         2e:50:22:60:58:71:be:8f:c6:cd:b6:58:b7:88:43:33:ca:8d:
         6f:ed:03:84:55:d6:fb:a0:4d:ac:64:3f:77:21:70:61:5d:43:
         ca:40:fc:7d:d1:20:0d:ea:02:57:90:c9:6f:8b:50:44:73:6b:
         2e:4a:71:5e:5d:a3:77:52:e0:5b:f0:59:20:20:83:36:03:ea:
         c3:ac:87:30:d0:d3:d2:a2:41:6c:ea:2b:c1:e3:0d:8c:81:ae:
         47:5a:94:f1:13:f5:2f:f6
-----BEGIN CERTIFICATE-----
MIIGPDCCBCSgAwIBAgICEAAwDQYJKoZIhvcNAQELBQAwgasxCzAJBgNVBAYTAkxL
MRAwDgYDVQQIDAdXZXN0ZXJuMRAwDgYDVQQHDAdDb2xvbWJvMR4wHAYDVQQKDBVV
bml2ZXJzaXR5IG9mIENvbG9tYm8xHDAaBgNVBAsME1NjaG9vbCBvZiBDb21wdXRp
bmcxEDAOBgNVBAMMB1VDU0MgQ0ExKDAmBgkqhkiG9w0BCQEWGWNoYXRodXJhbmdh
NDc0MkBnbWFpbC5jb20wHhcNMjEwMTAxMTgxMjQzWhcNMzAxMjMwMTgxMjQzWjCB
mDELMAkGA1UEBhMCTEsxEDAOBgNVBAgMB1dlc3Rlcm4xHjAcBgNVBAoMFVVuaXZl
cnNpdHkgb2YgQ29sb21ibzEcMBoGA1UECwwTU2Nob29sIG9mIENvbXB1dGluZzEP
MA0GA1UEAwwGQnVkZGhpMSgwJgYJKoZIhvcNAQkBFhljaGF0aHVyYW5nYTQ3NDJA
Z21haWwuY29tMIICIjANBgkqhkiG9w0BAQEFAAOCAg8AMIICCgKCAgEA1OBLURzB
ukP8oD5/wBYf3Mnj4vy5AVK7YY/dCmxCwmxKqVCWiRmRxFHqDcDiSOwhQMD15RZL
HILsPOylDIpx/magHDQecWmYduSTGnXTKNf/vxDOlddsg50INkKKlaV48yO8NxnJ
1W87HlffM2RrSkFRPdeUE7yW0xqaTnAt2yS29hfWTStClC3cC8hxkiMfxoOXKOjy
3uQu2iKj430trtgKA9OHEugxXURjPDxTCY8QZt3nrGIdjIJ23OI04yUvXf2/bfvb
FtY3PItDq5KbtpmVQZaRqsnMFTEB1B0UIjLSNCD3dd2LmDWCABSUJhjTptJ5G0en
++l6Z4zKn0DKUYOoMfc4Lo9D3LipEZ9wHNt7jp5DVqdST1+Vlay1ptVRpP/HIQyk
/URIuwZQLcOv1IS3jXd9QAhSBdAXh5ib0BBPb6vWC5OJPt8qFiXUuKzRqeioMcXl
L3BNrKsJgl5WBTXwYKFu58JxY0fKzOOTRldlGIo7lE9viqM0o3oijoyZpOPEWGa6
/NIVtBLVysxqLQ2t9um4xpOt1k6UvPC9tbYSuvwnLocGsI/m6hCcbTp+KK2QjVix
KjZwfLrkJJlchjauSbr4COxsl6dC3ixEXXH/IL6nslfb6yJqlT2D6KSevMayPRi/
hZQq4V1/ZlWnuPQKN0GpK8CESau+BK41cOECAwEAAaN7MHkwCQYDVR0TBAIwADAs
BglghkgBhvhCAQ0EHxYdT3BlblNTTCBHZW5lcmF0ZWQgQ2VydGlmaWNhdGUwHQYD
VR0OBBYEFLpP6+3JMr6pkuBd3bitt6xa9cltMB8GA1UdIwQYMBaAFNtWiXKT/Rrh
/dHXvxfzoQ2A0wVfMA0GCSqGSIb3DQEBCwUAA4ICAQBMvvUVjrQS8/h38dHa09EH
MMsNRE1kr8QYRDc/BmunqfLfjHQDaCICaxPaeV2kIg/0r/M0B5AjfWl3Iv4uZEsV
ESX5wxGoFTnbiAwkC1palEprNtWIOmGYFkDuDtsR73E5T0l67575SQyfMKYKDNCY
YsQp0re4Z7OTioEBLjdCMacQyemjz1M5kCsJB9MZoDoVn/FerlF5OPDVDDXhilBb
QyXO3U1epnMyYLb+R22pjrtmZi60oMGoRxr+RkqayD5s9rLH+7J75b/z56LNGN1T
rVvk+kRNXfLR2u4UJXQnPNuxSvOz1MvXyF/ESU2P+knAA/wF4wk7tAOo7zWiBP88
AQgkazG83i0/Lqp6pITQK7GHMsCGXmEt3L1WIghs5nKp+mz4hRqwZSKl+H7+AzZi
wlXScS6jvpMm8MT2m3vJ/bzkflAOCreokx8jeP/bQy0LFvI3sPUHI8scNz/owHf1
XzfenaMhMPUGPTMOIOsqZBjXIE1y8agey9s8pOttcpqCe0N3FZxwiOVhQPwBgFeM
4ImfEFOjbwoxq3xP4/EuUCJgWHG+j8bNtli3iEMzyo1v7QOEVdb7oE2sZD93IXBh
XUPKQPx90SAN6gJXkMlvi1BEc2suSnFeXaN3UuBb8FkgIIM2A+rDrIcw0NPSokFs
6ivB4w2Mga5HWpTxE/Uv9g==
-----END CERTIFICATE-----
