Certificate:
    Data:
        Version: 3 (0x2)
        Serial Number: 4097 (0x1001)
        Signature Algorithm: sha256WithRSAEncryption
        Issuer: C=LK, ST=Western, L=Colombo, O=University of Colombo, OU=School of Computing, CN=UCSC CA/emailAddress=chathuranga4742@gmail.com
        Validity
            Not Before: Jan  1 18:13:38 2021 GMT
            Not After : Dec 30 18:13:38 2030 GMT
        Subject: C=LK, ST=Western, O=University of Colombo, OU=School of Computing, CN=BuddhiOrg/emailAddress=chathuranga4742@gmail.com
        Subject Public Key Info:
            Public Key Algorithm: rsaEncryption
                RSA Public-Key: (4096 bit)
                Modulus:
                    00:ae:65:72:96:55:77:07:8e:ac:2e:6c:5a:55:f5:
                    1e:f7:06:24:63:e5:ee:b5:33:95:ef:94:e0:c4:33:
                    a6:62:52:e9:85:a3:42:dd:57:91:6a:7d:3b:f4:52:
                    9e:d7:e9:3d:fb:72:5c:5c:d8:9c:1b:c6:8b:0b:fb:
                    27:25:dc:55:04:4b:85:67:7c:ec:9d:e1:4d:ce:25:
                    85:47:57:12:e2:b1:74:58:0b:61:a8:33:de:f0:43:
                    36:0b:01:79:62:77:f6:20:fb:f1:62:06:58:e7:39:
                    28:a4:a3:bc:98:09:c7:d0:84:1d:45:66:0c:78:85:
                    ea:e3:c0:cf:de:28:91:ae:95:52:df:0c:72:78:db:
                    93:65:d4:15:b0:35:cd:fa:92:4b:b3:12:3b:a0:99:
                    f4:1b:de:81:38:20:bb:aa:12:a2:68:71:0f:fa:3b:
                    d6:50:ec:c5:93:31:d4:f6:04:23:50:3b:da:6a:79:
                    5c:b3:ca:bf:7f:16:8f:61:d8:2a:e8:10:0b:df:1f:
                    03:ae:43:72:81:18:4f:d2:0d:c8:98:55:90:3b:0a:
                    08:75:28:31:54:bf:06:3b:5c:85:19:05:38:6f:f8:
                    eb:61:93:a8:a2:d6:ea:2d:31:09:2c:61:f2:2e:b5:
                    93:9d:d8:3e:c3:f3:71:2e:5d:04:bb:a0:45:cc:c7:
                    e0:b8:c4:46:b8:39:de:83:0e:e1:66:9a:57:fd:0e:
                    62:21:04:65:af:7f:5c:b3:af:ad:65:e1:98:1c:41:
                    12:19:b1:f3:50:d8:5e:90:6c:6a:66:cb:c9:6e:90:
                    e6:b2:08:6a:dd:47:c1:2c:87:fb:23:29:16:d9:1a:
                    a0:ab:86:8c:fb:3d:0f:21:f8:ec:fe:2f:b4:5e:6d:
                    93:c6:80:47:4c:a9:a0:d6:f9:7d:0f:4a:03:3f:eb:
                    89:a5:52:ce:28:69:04:3a:4c:53:f3:f9:08:06:7d:
                    0e:5c:ea:fe:9b:5d:7c:dd:4c:22:a3:bc:d5:c8:9c:
                    a9:c0:83:21:f1:49:0d:32:e4:b7:e7:38:d0:69:80:
                    16:c3:2d:65:d5:84:97:9d:02:85:0c:a2:ec:43:f7:
                    ef:e8:d9:31:ea:99:00:a5:aa:a5:29:12:21:35:52:
                    a2:7d:38:e7:25:83:09:23:33:e8:a7:a9:b5:03:08:
                    1f:63:ab:3b:78:18:87:5a:0f:b2:76:36:73:9c:02:
                    eb:a6:9c:5e:ba:4c:24:61:f9:bd:ec:d3:8b:bb:41:
                    21:ce:13:a4:6d:1b:95:f4:12:71:71:22:5c:f1:95:
                    4f:b0:ac:e9:84:4b:ed:17:9c:be:67:da:eb:22:32:
                    a0:02:61:12:55:7f:5b:e0:1f:65:74:7f:07:ff:fd:
                    93:c7:29
                Exponent: 65537 (0x10001)
        X509v3 extensions:
            X509v3 Basic Constraints: 
                CA:FALSE
            Netscape Comment: 
                OpenSSL Generated Certificate
            X509v3 Subject Key Identifier: 
                6C:2F:05:BB:2E:4A:75:95:27:76:81:81:A2:18:82:E4:F1:0E:92:3F
            X509v3 Authority Key Identifier: 
                keyid:DB:56:89:72:93:FD:1A:E1:FD:D1:D7:BF:17:F3:A1:0D:80:D3:05:5F

    Signature Algorithm: sha256WithRSAEncryption
         0b:ea:f4:66:40:e6:ed:83:b3:ce:c1:db:f4:65:a0:b2:9c:9b:
         44:b6:9e:ee:35:40:aa:d7:34:e2:0c:01:6a:56:95:ab:e1:19:
         3b:eb:34:a4:aa:f9:f1:92:ce:ae:97:34:25:c9:7e:26:39:a5:
         a8:fe:8f:41:60:1a:a8:b9:a6:16:4b:86:bb:08:5f:38:e3:ce:
         ed:bc:ee:17:a0:74:d2:77:ab:cf:4e:82:4b:ab:42:77:ee:cb:
         98:4f:e3:bb:09:7c:34:0e:9a:8c:80:c8:27:18:05:52:21:b1:
         06:66:5f:59:e2:4f:88:cf:de:50:30:a6:dc:bb:ab:8c:ac:4a:
         5a:e2:b3:57:b5:a7:7d:31:c3:6b:e0:e0:ba:68:15:d3:c2:15:
         68:8e:be:2b:12:5e:59:55:f9:49:f2:40:52:ef:e2:30:b6:36:
         8d:b9:b1:66:72:6e:2d:7c:43:39:41:65:75:e3:11:39:27:2f:
         36:c5:04:f6:0a:2d:8a:08:48:6b:f4:7e:67:95:9b:18:48:84:
         2f:b1:aa:4e:0b:dc:a5:62:18:3d:f3:ab:79:c4:ce:86:fc:43:
         c0:09:fb:c0:a8:96:bc:6c:c6:e6:77:06:b4:d9:df:45:b3:0e:
         ed:1f:99:23:ff:66:eb:63:53:7b:ec:bb:1c:eb:f9:83:21:98:
         41:e6:c3:b7:49:9a:aa:c4:25:6b:16:ae:36:9e:01:4c:73:1d:
         c2:4b:cf:5f:68:18:ab:19:ba:37:cb:f8:39:ce:fb:ad:aa:89:
         66:a8:36:3e:cb:a8:56:a5:d5:e5:f0:00:f6:52:89:57:2b:5c:
         fb:82:5c:02:e5:ae:09:ed:d6:9b:f3:56:2e:d1:e2:ac:31:ed:
         99:77:ff:d8:4e:df:2e:d3:84:6b:5d:a9:2c:8f:d4:45:ae:3a:
         aa:7a:9a:2b:fb:ee:31:96:0a:30:7a:80:85:db:21:01:14:f8:
         1c:58:3a:53:c5:3b:66:14:68:1d:ce:8c:69:2b:6f:68:e9:b3:
         41:cf:a4:c7:92:22:36:7a:8f:32:a6:da:7d:e2:f2:a5:4b:b0:
         ed:3c:52:5f:eb:fe:1a:77:8f:9c:ea:74:80:71:16:aa:81:6f:
         80:75:85:70:a7:01:7d:64:fa:2a:b1:6b:20:bf:30:f8:cf:b5:
         ee:55:3d:37:cc:da:f6:68:7a:69:cd:46:77:ae:55:3c:f0:82:
         97:c3:5c:7a:39:c4:23:91:64:4f:3d:bf:3d:ec:b4:ec:94:dd:
         35:32:6a:69:da:16:5f:5b:f2:20:27:50:ab:3a:e0:56:6c:74:
         59:99:fd:9e:e3:49:0c:b7:c2:6a:a0:44:fd:ef:98:13:c4:54:
         32:54:0d:6f:39:33:f2:91
-----BEGIN CERTIFICATE-----
MIIGPzCCBCegAwIBAgICEAEwDQYJKoZIhvcNAQELBQAwgasxCzAJBgNVBAYTAkxL
MRAwDgYDVQQIDAdXZXN0ZXJuMRAwDgYDVQQHDAdDb2xvbWJvMR4wHAYDVQQKDBVV
bml2ZXJzaXR5IG9mIENvbG9tYm8xHDAaBgNVBAsME1NjaG9vbCBvZiBDb21wdXRp
bmcxEDAOBgNVBAMMB1VDU0MgQ0ExKDAmBgkqhkiG9w0BCQEWGWNoYXRodXJhbmdh
NDc0MkBnbWFpbC5jb20wHhcNMjEwMTAxMTgxMzM4WhcNMzAxMjMwMTgxMzM4WjCB
mzELMAkGA1UEBhMCTEsxEDAOBgNVBAgMB1dlc3Rlcm4xHjAcBgNVBAoMFVVuaXZl
cnNpdHkgb2YgQ29sb21ibzEcMBoGA1UECwwTU2Nob29sIG9mIENvbXB1dGluZzES
MBAGA1UEAwwJQnVkZGhpT3JnMSgwJgYJKoZIhvcNAQkBFhljaGF0aHVyYW5nYTQ3
NDJAZ21haWwuY29tMIICIjANBgkqhkiG9w0BAQEFAAOCAg8AMIICCgKCAgEArmVy
llV3B46sLmxaVfUe9wYkY+XutTOV75TgxDOmYlLphaNC3VeRan079FKe1+k9+3Jc
XNicG8aLC/snJdxVBEuFZ3zsneFNziWFR1cS4rF0WAthqDPe8EM2CwF5Ynf2IPvx
YgZY5zkopKO8mAnH0IQdRWYMeIXq48DP3iiRrpVS3wxyeNuTZdQVsDXN+pJLsxI7
oJn0G96BOCC7qhKiaHEP+jvWUOzFkzHU9gQjUDvaanlcs8q/fxaPYdgq6BAL3x8D
rkNygRhP0g3ImFWQOwoIdSgxVL8GO1yFGQU4b/jrYZOootbqLTEJLGHyLrWTndg+
w/NxLl0Eu6BFzMfguMRGuDnegw7hZppX/Q5iIQRlr39cs6+tZeGYHEESGbHzUNhe
kGxqZsvJbpDmsghq3UfBLIf7IykW2Rqgq4aM+z0PIfjs/i+0Xm2TxoBHTKmg1vl9
D0oDP+uJpVLOKGkEOkxT8/kIBn0OXOr+m1183Uwio7zVyJypwIMh8UkNMuS35zjQ
aYAWwy1l1YSXnQKFDKLsQ/fv6Nkx6pkApaqlKRIhNVKifTjnJYMJIzPop6m1Awgf
Y6s7eBiHWg+ydjZznALrppxeukwkYfm97NOLu0EhzhOkbRuV9BJxcSJc8ZVPsKzp
hEvtF5y+Z9rrIjKgAmESVX9b4B9ldH8H//2TxykCAwEAAaN7MHkwCQYDVR0TBAIw
ADAsBglghkgBhvhCAQ0EHxYdT3BlblNTTCBHZW5lcmF0ZWQgQ2VydGlmaWNhdGUw
HQYDVR0OBBYEFGwvBbsuSnWVJ3aBgaIYguTxDpI/MB8GA1UdIwQYMBaAFNtWiXKT
/Rrh/dHXvxfzoQ2A0wVfMA0GCSqGSIb3DQEBCwUAA4ICAQAL6vRmQObtg7POwdv0
ZaCynJtEtp7uNUCq1zTiDAFqVpWr4Rk76zSkqvnxks6ulzQlyX4mOaWo/o9BYBqo
uaYWS4a7CF84487tvO4XoHTSd6vPToJLq0J37suYT+O7CXw0DpqMgMgnGAVSIbEG
Zl9Z4k+Iz95QMKbcu6uMrEpa4rNXtad9McNr4OC6aBXTwhVojr4rEl5ZVflJ8kBS
7+IwtjaNubFmcm4tfEM5QWV14xE5Jy82xQT2Ci2KCEhr9H5nlZsYSIQvsapOC9yl
Yhg986t5xM6G/EPACfvAqJa8bMbmdwa02d9Fsw7tH5kj/2brY1N77Lsc6/mDIZhB
5sO3SZqqxCVrFq42ngFMcx3CS89faBirGbo3y/g5zvutqolmqDY+y6hWpdXl8AD2
UolXK1z7glwC5a4J7dab81Yu0eKsMe2Zd//YTt8u04RrXaksj9RFrjqqepor++4x
lgoweoCF2yEBFPgcWDpTxTtmFGgdzoxpK29o6bNBz6THkiI2eo8yptp94vKlS7Dt
PFJf6/4ad4+c6nSAcRaqgW+AdYVwpwF9ZPoqsWsgvzD4z7XuVT03zNr2aHppzUZ3
rlU88IKXw1x6OcQjkWRPPb897LTslN01Mmpp2hZfW/IgJ1CrOuBWbHRZmf2e40kM
t8JqoET975gTxFQyVA1vOTPykQ==
-----END CERTIFICATE-----
