Certificate:
    Data:
        Version: 3 (0x2)
        Serial Number: 4096 (0x1000)
        Signature Algorithm: sha256WithRSAEncryption
        Issuer: C=LK, ST=Western, L=Colombo, O=University of Colombo, OU=School of Computing, CN=UCSC CA/emailAddress=chathuranga4742@gmail.com
        Validity
            Not Before: Jan  1 16:56:10 2021 GMT
            Not After : Dec 30 16:56:10 2030 GMT
        Subject: C=LK, ST=Western, O=University of Colombo, OU=School of Computing, CN=UCSC CA/emailAddress=chathuranga4742@gmail.com
        Subject Public Key Info:
            Public Key Algorithm: rsaEncryption
                RSA Public-Key: (4096 bit)
                Modulus:
                    00:9a:1d:45:6e:fa:ca:96:a9:fe:12:6d:74:a8:d6:
                    45:c2:98:1e:5a:7e:34:6b:b8:75:db:0c:14:6d:24:
                    3f:53:28:36:fd:ce:53:e5:c1:26:3e:70:b4:06:4a:
                    5f:53:b5:b1:6f:16:47:88:1b:6c:5a:29:b3:e0:7a:
                    b0:42:a4:dd:f4:cb:53:eb:a8:2c:2c:51:f4:62:96:
                    7d:43:9f:bc:eb:de:f9:a9:22:e8:4b:7a:5c:52:76:
                    8d:55:1f:97:0d:1c:0c:ee:e7:08:f6:c6:a1:ec:56:
                    76:81:c8:6e:8b:de:43:35:f8:74:fd:7d:b2:40:9b:
                    08:64:43:e6:ce:9d:71:91:d4:9d:0f:a5:4c:5b:6e:
                    3f:3f:53:6f:7e:46:d5:9c:2c:80:5b:e2:4c:48:f2:
                    c5:99:84:91:5b:f9:ab:72:44:db:9b:e2:9e:f4:04:
                    38:37:65:84:1d:1c:e1:1f:e8:c6:0f:27:29:14:1f:
                    32:6f:b3:b6:3a:7e:74:14:c2:30:6c:fb:2c:04:35:
                    49:4c:97:8b:ad:bd:c3:1b:1e:15:d7:b0:21:85:52:
                    5e:94:34:9c:1e:bf:57:42:8c:70:11:6c:4d:ff:4c:
                    2a:2b:38:9f:2e:ec:21:99:b9:55:8d:0f:a7:c9:83:
                    ae:66:6c:24:a1:4a:1f:5b:13:a2:ac:05:38:76:43:
                    e1:6c:4b:0f:b2:95:54:10:66:6c:22:0a:b3:e4:ce:
                    0e:74:95:58:7f:68:ad:82:ca:03:c0:20:80:39:91:
                    4d:eb:a5:0c:b6:81:b4:bf:ef:dc:57:1f:85:38:c3:
                    48:45:68:2f:59:b8:93:d3:33:e4:48:12:ad:65:85:
                    78:8c:be:ee:3c:ca:8e:ac:25:d8:9d:fb:54:28:99:
                    d0:6c:16:e8:93:70:84:5b:7e:f8:1d:2f:0c:4a:d3:
                    72:7d:f3:c2:6e:c5:50:02:51:0d:01:9f:5e:d6:92:
                    98:56:f5:42:9e:fd:3c:e7:7c:dd:6c:b0:4e:c4:74:
                    04:48:09:02:2b:56:92:15:85:7f:7b:2b:b8:42:e5:
                    e3:1e:7b:fb:2f:fc:d0:8d:bb:65:a1:c5:35:78:cf:
                    63:fb:6f:f9:5e:dd:c3:f9:51:d4:a1:86:0f:43:ac:
                    a1:53:d8:9e:bc:4b:fe:81:f0:f1:97:0d:6c:92:17:
                    1f:15:4c:18:47:21:42:e1:90:d0:fa:14:59:48:ea:
                    15:de:ab:1b:91:ee:56:c2:40:a4:a1:c9:42:3a:dc:
                    5b:7d:59:85:ca:1c:98:97:b2:2a:f6:85:a0:b9:b1:
                    5a:a1:b3:6e:95:ae:8a:35:ee:74:c9:7a:8b:b7:16:
                    49:6c:f3:e6:cd:56:4d:e6:f4:95:d8:c3:83:dd:76:
                    d2:cf:13
                Exponent: 65537 (0x10001)
        X509v3 extensions:
            X509v3 Basic Constraints: 
                CA:FALSE
            Netscape Comment: 
                OpenSSL Generated Certificate
            X509v3 Subject Key Identifier: 
                DF:EE:4A:71:91:6C:E5:B5:61:48:E7:98:EE:BB:20:82:C9:F8:28:A9
            X509v3 Authority Key Identifier: 
                keyid:03:FB:35:F0:A1:61:75:E7:7B:77:B6:37:02:88:B7:DB:F2:F3:EE:19

    Signature Algorithm: sha256WithRSAEncryption
         ce:2f:31:56:28:65:88:06:ad:f0:1c:eb:0c:65:14:29:2d:0b:
         92:52:7b:bb:76:5f:bd:2e:21:bc:dd:b3:71:0e:6c:e2:02:67:
         a5:e3:2a:ea:38:03:ee:df:68:b3:32:80:3c:9c:46:80:a0:68:
         b6:f5:df:d6:d1:0d:fd:52:ff:ad:22:50:00:a3:de:c5:89:82:
         bd:af:d7:93:df:76:c2:82:0d:c6:1e:98:86:31:45:94:89:95:
         e9:4c:4e:fa:60:57:70:2c:42:77:68:d8:b9:c0:11:f3:6a:4b:
         84:0d:05:57:12:fb:a0:a0:2b:2b:0d:a3:70:3c:22:7e:1d:69:
         e3:41:76:ca:60:90:bc:7e:1a:9b:5f:e3:64:ac:5f:bd:8c:8a:
         a1:81:0b:06:6e:41:d4:d4:2c:9c:10:7b:20:0b:65:22:d3:b5:
         68:71:57:13:e8:3c:eb:84:8e:2d:8c:62:89:b5:03:3e:98:90:
         f2:1d:a9:4c:e2:81:3d:2f:57:23:da:01:14:a1:fa:85:24:7f:
         af:f0:73:df:d4:8d:e3:47:55:61:02:de:ac:9b:01:b2:2f:ac:
         a3:83:b1:54:67:5b:89:08:cb:42:38:f2:33:79:4b:f7:6b:67:
         b2:c3:33:d0:7d:4a:ee:90:f5:dc:ba:99:34:5e:3a:bf:64:9c:
         ac:f8:fb:17:28:ca:b4:6e:38:d1:6f:e0:c6:ec:25:bb:51:89:
         4e:68:2c:06:6d:ee:59:3b:a8:84:54:52:81:4f:9e:a1:ae:4b:
         a0:5e:95:a6:f2:e7:bd:6f:ba:d6:ef:31:76:34:ad:7a:8b:41:
         34:51:5a:5b:a3:26:b8:c0:03:e7:08:6f:8e:b8:9a:f7:b2:9b:
         a6:d9:17:27:40:1b:ae:e0:a1:3b:f9:fe:67:40:98:31:d2:ab:
         00:b5:f9:8e:da:95:15:25:05:0b:78:04:ec:f8:42:6b:0a:f4:
         8c:ec:9e:49:96:dc:25:13:67:8f:5e:31:35:32:22:31:24:9f:
         fa:42:2f:ba:d8:e3:94:54:ad:26:fd:7a:4f:1a:5d:3b:43:c9:
         43:a9:84:16:69:ee:b0:49:94:d0:d3:1f:da:ef:b3:8a:9d:10:
         9b:3c:d7:cb:f2:3c:67:f0:b9:1a:99:27:1c:b8:3c:1c:ea:e9:
         3e:a8:a9:29:4f:2f:86:ef:b8:4c:91:d1:5c:74:40:98:45:87:
         89:4e:b2:2c:51:ff:b4:92:75:50:ea:e9:ff:df:2f:a7:3b:ac:
         98:94:5e:90:3e:42:c7:1b:13:b6:49:a6:5b:87:8a:6e:a4:1d:
         5d:c5:e8:0e:7f:9d:52:22:48:93:fd:92:c2:21:bc:4c:0c:d5:
         78:74:09:f0:76:ba:1c:63
-----BEGIN CERTIFICATE-----
MIIGPTCCBCWgAwIBAgICEAAwDQYJKoZIhvcNAQELBQAwgasxCzAJBgNVBAYTAkxL
MRAwDgYDVQQIDAdXZXN0ZXJuMRAwDgYDVQQHDAdDb2xvbWJvMR4wHAYDVQQKDBVV
bml2ZXJzaXR5IG9mIENvbG9tYm8xHDAaBgNVBAsME1NjaG9vbCBvZiBDb21wdXRp
bmcxEDAOBgNVBAMMB1VDU0MgQ0ExKDAmBgkqhkiG9w0BCQEWGWNoYXRodXJhbmdh
NDc0MkBnbWFpbC5jb20wHhcNMjEwMTAxMTY1NjEwWhcNMzAxMjMwMTY1NjEwWjCB
mTELMAkGA1UEBhMCTEsxEDAOBgNVBAgMB1dlc3Rlcm4xHjAcBgNVBAoMFVVuaXZl
cnNpdHkgb2YgQ29sb21ibzEcMBoGA1UECwwTU2Nob29sIG9mIENvbXB1dGluZzEQ
MA4GA1UEAwwHVUNTQyBDQTEoMCYGCSqGSIb3DQEJARYZY2hhdGh1cmFuZ2E0NzQy
QGdtYWlsLmNvbTCCAiIwDQYJKoZIhvcNAQEBBQADggIPADCCAgoCggIBAJodRW76
ypap/hJtdKjWRcKYHlp+NGu4ddsMFG0kP1MoNv3OU+XBJj5wtAZKX1O1sW8WR4gb
bFops+B6sEKk3fTLU+uoLCxR9GKWfUOfvOve+aki6Et6XFJ2jVUflw0cDO7nCPbG
oexWdoHIboveQzX4dP19skCbCGRD5s6dcZHUnQ+lTFtuPz9Tb35G1ZwsgFviTEjy
xZmEkVv5q3JE25vinvQEODdlhB0c4R/oxg8nKRQfMm+ztjp+dBTCMGz7LAQ1SUyX
i629wxseFdewIYVSXpQ0nB6/V0KMcBFsTf9MKis4ny7sIZm5VY0Pp8mDrmZsJKFK
H1sToqwFOHZD4WxLD7KVVBBmbCIKs+TODnSVWH9orYLKA8AggDmRTeulDLaBtL/v
3FcfhTjDSEVoL1m4k9Mz5EgSrWWFeIy+7jzKjqwl2J37VCiZ0GwW6JNwhFt++B0v
DErTcn3zwm7FUAJRDQGfXtaSmFb1Qp79POd83WywTsR0BEgJAitWkhWFf3sruELl
4x57+y/80I27ZaHFNXjPY/tv+V7dw/lR1KGGD0OsoVPYnrxL/oHw8ZcNbJIXHxVM
GEchQuGQ0PoUWUjqFd6rG5HuVsJApKHJQjrcW31ZhcocmJeyKvaFoLmxWqGzbpWu
ijXudMl6i7cWSWzz5s1WTeb0ldjDg9120s8TAgMBAAGjezB5MAkGA1UdEwQCMAAw
LAYJYIZIAYb4QgENBB8WHU9wZW5TU0wgR2VuZXJhdGVkIENlcnRpZmljYXRlMB0G
A1UdDgQWBBTf7kpxkWzltWFI55juuyCCyfgoqTAfBgNVHSMEGDAWgBQD+zXwoWF1
53t3tjcCiLfb8vPuGTANBgkqhkiG9w0BAQsFAAOCAgEAzi8xVihliAat8BzrDGUU
KS0LklJ7u3ZfvS4hvN2zcQ5s4gJnpeMq6jgD7t9oszKAPJxGgKBotvXf1tEN/VL/
rSJQAKPexYmCva/Xk992woINxh6YhjFFlImV6UxO+mBXcCxCd2jYucAR82pLhA0F
VxL7oKArKw2jcDwifh1p40F2ymCQvH4am1/jZKxfvYyKoYELBm5B1NQsnBB7IAtl
ItO1aHFXE+g864SOLYxiibUDPpiQ8h2pTOKBPS9XI9oBFKH6hSR/r/Bz39SN40dV
YQLerJsBsi+so4OxVGdbiQjLQjjyM3lL92tnssMz0H1K7pD13LqZNF46v2ScrPj7
FyjKtG440W/gxuwlu1GJTmgsBm3uWTuohFRSgU+eoa5LoF6VpvLnvW+61u8xdjSt
eotBNFFaW6MmuMAD5whvjria97KbptkXJ0AbruChO/n+Z0CYMdKrALX5jtqVFSUF
C3gE7PhCawr0jOyeSZbcJRNnj14xNTIiMSSf+kIvutjjlFStJv16TxpdO0PJQ6mE
FmnusEmU0NMf2u+zip0QmzzXy/I8Z/C5GpknHLg8HOrpPqipKU8vhu+4TJHRXHRA
mEWHiU6yLFH/tJJ1UOrp/98vpzusmJRekD5CxxsTtkmmW4eKbqQdXcXoDn+dUiJI
k/2SwiG8TAzVeHQJ8Ha6HGM=
-----END CERTIFICATE-----
