Certificate:
    Data:
        Version: 3 (0x2)
        Serial Number: 4097 (0x1001)
        Signature Algorithm: sha256WithRSAEncryption
        Issuer: C=LK, ST=Western, L=Colombo, O=University of Colombo, OU=School of Computing, CN=UCSC CA/emailAddress=chathuranga4742@gmail.com
        Validity
            Not Before: Jan  1 17:02:32 2021 GMT
            Not After : Dec 30 17:02:32 2030 GMT
        Subject: C=LK, ST=Western, O=University of Colombo, OU=School of Computing, CN=www.myweb.com/emailAddress=chathuranga4742@gmail.com
        Subject Public Key Info:
            Public Key Algorithm: rsaEncryption
                RSA Public-Key: (4096 bit)
                Modulus:
                    00:ad:88:0c:8e:49:08:8a:57:3a:cb:f7:2d:78:73:
                    25:cb:53:1e:58:11:6a:ee:43:51:73:e0:ac:7a:20:
                    41:ac:35:28:fc:af:18:32:ef:61:82:b9:ac:88:51:
                    f9:2c:8d:3c:e7:3f:52:63:8a:07:5b:e1:a4:81:44:
                    42:07:22:94:21:06:2c:8a:a5:38:37:be:4f:9a:86:
                    dd:8f:47:44:df:fb:78:6c:2e:51:d4:6a:70:c8:1c:
                    e7:b3:df:a9:39:83:02:ce:e6:23:66:14:df:3b:e6:
                    a4:a9:f4:04:0a:e0:65:e9:4c:9d:ce:20:ec:b5:b7:
                    a4:56:f9:38:d8:f3:5d:21:29:09:2e:ea:67:2e:c6:
                    87:a1:2d:81:ac:54:ec:33:a3:a9:fd:11:89:59:b3:
                    9c:7e:bd:2e:c1:a7:d4:fa:67:e3:ca:64:bb:04:95:
                    92:c6:f4:69:45:eb:91:d3:c0:ae:9f:bb:1d:86:4e:
                    eb:d5:7c:6d:76:80:2a:df:23:c4:41:f1:82:68:01:
                    63:e4:16:84:7f:d2:0f:f5:50:41:a7:e7:3e:02:3e:
                    cd:cb:1d:e2:79:07:71:b4:d9:b8:0c:a2:c5:2e:7c:
                    7d:5f:77:14:c4:1d:f6:7d:fc:78:55:2a:cf:91:20:
                    af:94:f6:93:37:e9:c9:a8:f5:e6:64:69:cd:7b:e2:
                    bb:1b:f7:15:55:1a:69:cc:6b:4f:7a:cc:ab:aa:73:
                    21:d8:7c:13:06:65:07:41:4a:54:f6:54:6f:1a:1b:
                    7a:44:6d:59:f5:a8:07:bb:84:87:08:a1:f7:8b:22:
                    00:c2:83:af:de:8e:27:ae:6f:af:ab:84:26:16:90:
                    34:f2:c9:5a:df:c0:fb:87:e8:95:84:2f:62:49:b1:
                    c2:f8:a6:e4:db:6e:65:28:e9:d7:53:7d:5f:d2:b8:
                    cf:48:c9:4f:2d:d1:63:53:2a:92:88:fb:9b:bc:2e:
                    94:b2:4e:20:61:49:cc:36:24:62:9b:65:cb:bf:2a:
                    44:41:63:7d:ba:b9:b7:7a:f4:0d:c7:70:c8:70:72:
                    94:62:82:c1:36:f0:d3:c9:cd:1a:79:3c:8e:43:e0:
                    65:48:71:d5:c7:ba:b7:81:4f:69:f3:45:da:1b:f1:
                    a1:fd:77:7f:75:7c:e5:da:a7:26:59:53:16:a0:62:
                    33:8b:20:7f:89:55:d4:0e:b6:4a:f3:e9:86:93:b3:
                    99:64:98:c6:71:42:dc:fe:b2:fe:01:53:db:79:f6:
                    26:9f:a9:3a:46:36:f6:33:a4:cc:23:ba:fa:f0:8e:
                    5d:c4:9d:e6:3c:13:81:bb:57:f1:2d:5f:2b:4a:cd:
                    81:7a:e5:95:cc:6b:70:8c:d8:c9:8f:c1:18:cc:64:
                    67:02:73
                Exponent: 65537 (0x10001)
        X509v3 extensions:
            X509v3 Basic Constraints: 
                CA:FALSE
            Netscape Comment: 
                OpenSSL Generated Certificate
            X509v3 Subject Key Identifier: 
                A0:DF:C4:F3:72:E2:4A:C4:56:39:04:94:99:FC:B6:50:95:49:68:70
            X509v3 Authority Key Identifier: 
                keyid:03:FB:35:F0:A1:61:75:E7:7B:77:B6:37:02:88:B7:DB:F2:F3:EE:19

    Signature Algorithm: sha256WithRSAEncryption
         4b:05:5c:ab:67:2a:d9:58:e0:ae:97:8f:fb:45:67:c1:eb:0d:
         d3:8e:8d:c9:9b:59:0c:a7:c6:2d:97:50:45:9a:93:e9:63:7b:
         9e:ee:61:49:e1:98:39:e6:50:8f:c3:c6:09:e3:f1:c3:17:f1:
         0f:bd:df:99:2d:4b:19:f5:04:b8:8b:17:96:ba:b7:63:a9:8d:
         a2:e4:57:29:ca:5a:10:75:67:78:37:c2:95:41:bb:4e:b3:19:
         6f:20:6c:fc:53:46:93:f5:a7:0a:8c:90:01:aa:81:cf:14:c7:
         04:67:4f:28:d2:9e:26:5f:8e:49:c5:93:ba:72:d2:d0:fc:c7:
         6c:30:b0:74:fd:fa:40:4f:dd:ce:d0:0b:24:20:db:51:df:5d:
         8a:3f:d3:2b:ff:a5:93:4a:b4:ac:0f:63:77:1c:22:70:43:d1:
         3f:ba:eb:2f:dc:54:78:84:bf:55:9b:ff:a2:93:a1:a2:1d:30:
         ae:7c:4b:ee:18:2e:b0:f1:71:74:16:36:0a:35:e4:c1:5e:0c:
         12:27:9f:48:e4:4e:6d:52:b7:1a:a3:08:92:91:57:09:ad:25:
         4f:02:ea:ac:1a:8f:f0:29:90:b5:13:97:fd:c6:99:3a:21:03:
         19:8b:b6:21:06:9f:a1:23:e5:5b:15:a2:00:19:a5:d0:71:11:
         8c:6e:42:6e:72:fc:18:bb:c1:8f:d7:e9:23:9f:fb:f0:d6:13:
         77:2d:c2:d6:dd:9f:61:9f:58:b0:f4:73:e9:07:0b:9a:ad:bc:
         cd:88:b7:24:88:9b:c0:79:67:63:7d:d9:9f:63:3a:88:38:ca:
         15:10:95:3a:f4:d9:9f:4d:10:4f:b6:3e:7c:67:a3:c2:16:3f:
         49:f1:59:7e:c4:e7:60:1b:5a:d2:51:c6:7e:46:75:a0:b0:db:
         fe:54:b8:55:b9:dc:fd:fa:6a:2f:13:b9:ab:6d:ab:f1:73:e9:
         b1:64:bc:52:88:6e:dc:5d:99:f3:7d:5a:6b:55:32:d0:ac:c6:
         9d:43:c7:12:21:f1:ac:91:0f:c4:da:f1:0f:8a:93:10:36:0b:
         db:6b:69:98:73:d3:33:30:5d:bb:2c:e8:57:72:86:95:6e:50:
         a0:64:3b:78:64:5c:5b:bd:6c:7b:da:86:b8:b2:00:a1:92:f2:
         45:a4:c0:04:9f:55:0d:dd:03:7a:f4:c9:ba:23:1a:79:e6:c6:
         f3:61:23:7c:01:a6:76:c0:9d:fd:ee:b6:04:96:c2:0f:ac:68:
         49:1c:d1:61:1a:c4:b1:c9:82:f5:3a:3d:ec:24:2f:95:d2:f6:
         90:b9:d9:88:88:d3:18:84:82:c2:25:26:71:74:40:b9:87:61:
         e5:3e:03:dc:f0:b8:a9:da
-----BEGIN CERTIFICATE-----
MIIGQzCCBCugAwIBAgICEAEwDQYJKoZIhvcNAQELBQAwgasxCzAJBgNVBAYTAkxL
MRAwDgYDVQQIDAdXZXN0ZXJuMRAwDgYDVQQHDAdDb2xvbWJvMR4wHAYDVQQKDBVV
bml2ZXJzaXR5IG9mIENvbG9tYm8xHDAaBgNVBAsME1NjaG9vbCBvZiBDb21wdXRp
bmcxEDAOBgNVBAMMB1VDU0MgQ0ExKDAmBgkqhkiG9w0BCQEWGWNoYXRodXJhbmdh
NDc0MkBnbWFpbC5jb20wHhcNMjEwMTAxMTcwMjMyWhcNMzAxMjMwMTcwMjMyWjCB
nzELMAkGA1UEBhMCTEsxEDAOBgNVBAgMB1dlc3Rlcm4xHjAcBgNVBAoMFVVuaXZl
cnNpdHkgb2YgQ29sb21ibzEcMBoGA1UECwwTU2Nob29sIG9mIENvbXB1dGluZzEW
MBQGA1UEAwwNd3d3Lm15d2ViLmNvbTEoMCYGCSqGSIb3DQEJARYZY2hhdGh1cmFu
Z2E0NzQyQGdtYWlsLmNvbTCCAiIwDQYJKoZIhvcNAQEBBQADggIPADCCAgoCggIB
AK2IDI5JCIpXOsv3LXhzJctTHlgRau5DUXPgrHogQaw1KPyvGDLvYYK5rIhR+SyN
POc/UmOKB1vhpIFEQgcilCEGLIqlODe+T5qG3Y9HRN/7eGwuUdRqcMgc57PfqTmD
As7mI2YU3zvmpKn0BArgZelMnc4g7LW3pFb5ONjzXSEpCS7qZy7Gh6EtgaxU7DOj
qf0RiVmznH69LsGn1Ppn48pkuwSVksb0aUXrkdPArp+7HYZO69V8bXaAKt8jxEHx
gmgBY+QWhH/SD/VQQafnPgI+zcsd4nkHcbTZuAyixS58fV93FMQd9n38eFUqz5Eg
r5T2kzfpyaj15mRpzXviuxv3FVUaacxrT3rMq6pzIdh8EwZlB0FKVPZUbxobekRt
WfWoB7uEhwih94siAMKDr96OJ65vr6uEJhaQNPLJWt/A+4folYQvYkmxwvim5Ntu
ZSjp11N9X9K4z0jJTy3RY1Mqkoj7m7wulLJOIGFJzDYkYptly78qREFjfbq5t3r0
DcdwyHBylGKCwTbw08nNGnk8jkPgZUhx1ce6t4FPafNF2hvxof13f3V85dqnJllT
FqBiM4sgf4lV1A62SvPphpOzmWSYxnFC3P6y/gFT23n2Jp+pOkY29jOkzCO6+vCO
XcSd5jwTgbtX8S1fK0rNgXrllcxrcIzYyY/BGMxkZwJzAgMBAAGjezB5MAkGA1Ud
EwQCMAAwLAYJYIZIAYb4QgENBB8WHU9wZW5TU0wgR2VuZXJhdGVkIENlcnRpZmlj
YXRlMB0GA1UdDgQWBBSg38TzcuJKxFY5BJSZ/LZQlUlocDAfBgNVHSMEGDAWgBQD
+zXwoWF153t3tjcCiLfb8vPuGTANBgkqhkiG9w0BAQsFAAOCAgEASwVcq2cq2Vjg
rpeP+0VnwesN046NyZtZDKfGLZdQRZqT6WN7nu5hSeGYOeZQj8PGCePxwxfxD73f
mS1LGfUEuIsXlrq3Y6mNouRXKcpaEHVneDfClUG7TrMZbyBs/FNGk/WnCoyQAaqB
zxTHBGdPKNKeJl+OScWTunLS0PzHbDCwdP36QE/dztALJCDbUd9dij/TK/+lk0q0
rA9jdxwicEPRP7rrL9xUeIS/VZv/opOhoh0wrnxL7hgusPFxdBY2CjXkwV4MEief
SORObVK3GqMIkpFXCa0lTwLqrBqP8CmQtROX/caZOiEDGYu2IQafoSPlWxWiABml
0HERjG5CbnL8GLvBj9fpI5/78NYTdy3C1t2fYZ9YsPRz6QcLmq28zYi3JIibwHln
Y33Zn2M6iDjKFRCVOvTZn00QT7Y+fGejwhY/SfFZfsTnYBta0lHGfkZ1oLDb/lS4
Vbnc/fpqLxO5q22r8XPpsWS8Uohu3F2Z831aa1Uy0KzGnUPHEiHxrJEPxNrxD4qT
EDYL22tpmHPTMzBduyzoV3KGlW5QoGQ7eGRcW71se9qGuLIAoZLyRaTABJ9VDd0D
evTJuiMaeebG82EjfAGmdsCd/e62BJbCD6xoSRzRYRrEscmC9To97CQvldL2kLnZ
iIjTGISCwiUmcXRAuYdh5T4D3PC4qdo=
-----END CERTIFICATE-----
